(dp0
S's9'
p1
I27
sS's8'
p2
I20
sS's3'
p3
I6
sS's2'
p4
I3
sS's1'
p5
I21
sS's7'
p6
I26
sS's6'
p7
I22
sS's5'
p8
I2
sS's4'
p9
I7
sS's13'
p10
I33
sS's12'
p11
I37
sS's40'
p12
I35
sS's37'
p13
I25
sS's31'
p14
I29
sS's19'
p15
I9
sS's18'
p16
I19
sS's39'
p17
I23
sS's38'
p18
I30
sS's35'
p19
I5
sS's34'
p20
I0
sS's11'
p21
I14
sS's10'
p22
I13
sS's17'
p23
I11
sS's16'
p24
I15
sS's33'
p25
I1
sS's32'
p26
I4
sS's15'
p27
I36
sS's14'
p28
I34
sS's30'
p29
I24
sS's22'
p30
I31
sS's23'
p31
I39
sS's20'
p32
I17
sS's21'
p33
I10
sS's26'
p34
I8
sS's27'
p35
I18
sS's24'
p36
I38
sS's25'
p37
I32
sS's28'
p38
I12
sS's29'
p39
I16
sS's36'
p40
I28
s.